target datalayout = "e-m:e-p270:32:32-p271:32:32-p272:64:64-i64:64-i128:128-f80:128-n8:16:32:64-S128"
target triple = "x86_64-pc-linux-gnu"

%"class.std::basic_ostream" = type { ptr, %"class.std::basic_ios" }
%"class.std::basic_ios" = type { %"class.std::ios_base", ptr, i8, i8, ptr, ptr, ptr, ptr }
%"class.std::ios_base" = type { ptr, i64, i64, i32, i32, i32, ptr, %"struct.std::ios_base::_Words", [8 x %"struct.std::ios_base::_Words"], i32, ptr, %"class.std::locale" }
%"struct.std::ios_base::_Words" = type { ptr, i64 }
%"class.std::locale" = type { ptr }
%"class.nanogui::Screen" = type { %"class.nanogui::Widget.base", ptr, ptr, [6 x ptr], i32, %"class.std::vector", %"struct.nanogui::Array", float, i32, i32, %"struct.nanogui::Array", i8, ptr, double, i8, %"class.nanogui::Color", %"class.std::__cxx11::basic_string", i8, i8, i8, i8, i8, i8, %"class.std::function" }
%"class.nanogui::Widget.base" = type <{ %"class.nanogui::Object.base", [4 x i8], ptr, %"class.nanogui::ref", %"class.nanogui::ref.0", %"struct.nanogui::Array", %"struct.nanogui::Array", %"struct.nanogui::Array", %"class.std::vector", i8, i8, i8, i8, [4 x i8], %"class.std::__cxx11::basic_string", i32, float, i32 }>
%"class.nanogui::Object.base" = type <{ ptr, %"struct.std::atomic" }>
%"struct.std::atomic" = type { %"struct.std::__atomic_base" }
%"struct.std::__atomic_base" = type { i32 }
%"class.nanogui::ref" = type { ptr }
%"class.nanogui::ref.0" = type { ptr }
%"class.std::vector" = type { %"struct.std::_Vector_base" }
%"struct.std::_Vector_base" = type { %"struct.std::_Vector_base<nanogui::Widget *, std::allocator<nanogui::Widget *>>::_Vector_impl" }
%"struct.std::_Vector_base<nanogui::Widget *, std::allocator<nanogui::Widget *>>::_Vector_impl" = type { %"struct.std::_Vector_base<nanogui::Widget *, std::allocator<nanogui::Widget *>>::_Vector_impl_data" }
%"struct.std::_Vector_base<nanogui::Widget *, std::allocator<nanogui::Widget *>>::_Vector_impl_data" = type { ptr, ptr, ptr }
%"struct.nanogui::Array" = type { [2 x i32] }
%"class.nanogui::Color" = type { %"struct.nanogui::Array.7" }
%"struct.nanogui::Array.7" = type { [4 x float] }
%"class.std::__cxx11::basic_string" = type { %"struct.std::__cxx11::basic_string<char>::_Alloc_hider", i64, %union.anon }
%"struct.std::__cxx11::basic_string<char>::_Alloc_hider" = type { ptr }
%union.anon = type { i64, [8 x i8] }
%"class.std::function" = type { %"class.std::_Function_base", ptr }
%"class.std::_Function_base" = type { %"union.std::_Any_data", ptr }
%"union.std::_Any_data" = type { %"union.std::_Nocopy_types" }
%"union.std::_Nocopy_types" = type { { i64, i64 } }
%"class.nanogui::Widget" = type <{ %"class.nanogui::Object.base", [4 x i8], ptr, %"class.nanogui::ref", %"class.nanogui::ref.0", %"struct.nanogui::Array", %"struct.nanogui::Array", %"struct.nanogui::Array", %"class.std::vector", i8, i8, i8, i8, [4 x i8], %"class.std::__cxx11::basic_string", i32, float, i32, [4 x i8] }>
%"struct.nanogui::Array.25" = type { [2 x float] }
%"class.nanogui::Window" = type <{ %"class.nanogui::Widget.base", [4 x i8], %"class.std::__cxx11::basic_string", ptr, i8, i8, [6 x i8] }>

@_ZTISt9exception = external constant ptr
@_ZSt4cerr = external global %"class.std::basic_ostream", align 8
@.str.9 = private unnamed_addr constant [36 x i8] c"Caught exception in event handler: \00", align 1
@_ZTIN7nanogui6WidgetE = external constant ptr
@_ZTIN7nanogui6WindowE = external constant ptr

; Function Attrs: mustprogress nounwind uwtable
define linkonce_odr hidden noundef nonnull align 4 dereferenceable(4) ptr @_ZN7nanogui5ArrayIiLm2EEixEm(ptr noundef nonnull align 4 dereferenceable(8) %0, i64 noundef %1) #7 comdat align 2 {
  %3 = alloca ptr, align 8
  %4 = alloca i64, align 8
  store ptr %0, ptr %3, align 8
  store i64 %1, ptr %4, align 8
  %5 = load ptr, ptr %3, align 8
  %6 = getelementptr inbounds %"struct.nanogui::Array", ptr %5, i32 0, i32 0
  %7 = load i64, ptr %4, align 8
  %8 = getelementptr inbounds [2 x i32], ptr %6, i64 0, i64 %7
  ret ptr %8
}

; Function Attrs: mustprogress nounwind uwtable
define linkonce_odr hidden void @_ZN7nanogui5ArrayIiLm2EEC2Ev(ptr noundef nonnull align 4 dereferenceable(8) %0) unnamed_addr #7 comdat align 2 {
  %2 = alloca ptr, align 8
  store ptr %0, ptr %2, align 8
  ret void
}

; Function Attrs: mustprogress nounwind uwtable
define linkonce_odr hidden noundef nonnull align 4 dereferenceable(4) ptr @_ZNK7nanogui5ArrayIiLm2EE1yILm2ETnNSt9enable_ifIXgeT_Li2EEiE4typeELi0EEERKiv(ptr noundef nonnull align 4 dereferenceable(8) %0) #7 comdat align 2 {
  %2 = alloca ptr, align 8
  store ptr %0, ptr %2, align 8
  %3 = load ptr, ptr %2, align 8
  %4 = getelementptr inbounds %"struct.nanogui::Array", ptr %3, i32 0, i32 0
  %5 = getelementptr inbounds [2 x i32], ptr %4, i64 0, i64 1
  ret ptr %5
}

; Function Attrs: mustprogress nounwind uwtable
define linkonce_odr hidden noundef nonnull align 4 dereferenceable(4) ptr @_ZNK7nanogui5ArrayIiLm2EE1xILm2ETnNSt9enable_ifIXgeT_Li1EEiE4typeELi0EEERKiv(ptr noundef nonnull align 4 dereferenceable(8) %0) #7 comdat align 2 {
  %2 = alloca ptr, align 8
  store ptr %0, ptr %2, align 8
  %3 = load ptr, ptr %2, align 8
  %4 = getelementptr inbounds %"struct.nanogui::Array", ptr %3, i32 0, i32 0
  %5 = getelementptr inbounds [2 x i32], ptr %4, i64 0, i64 0
  ret ptr %5
}

; Function Attrs: mustprogress nounwind uwtable
define linkonce_odr hidden noundef nonnull align 4 dereferenceable(4) ptr @_ZN7nanogui5ArrayIiLm2EE1yILm2ETnNSt9enable_ifIXgeT_Li2EEiE4typeELi0EEERiv(ptr noundef nonnull align 4 dereferenceable(8) %0) #7 comdat align 2 {
  %2 = alloca ptr, align 8
  store ptr %0, ptr %2, align 8
  %3 = load ptr, ptr %2, align 8
  %4 = getelementptr inbounds %"struct.nanogui::Array", ptr %3, i32 0, i32 0
  %5 = getelementptr inbounds [2 x i32], ptr %4, i64 0, i64 1
  ret ptr %5
}

; Function Attrs: mustprogress nounwind uwtable
define linkonce_odr hidden noundef nonnull align 4 dereferenceable(4) ptr @_ZN7nanogui5ArrayIiLm2EE1xILm2ETnNSt9enable_ifIXgeT_Li1EEiE4typeELi0EEERiv(ptr noundef nonnull align 4 dereferenceable(8) %0) #7 comdat align 2 {
  %2 = alloca ptr, align 8
  store ptr %0, ptr %2, align 8
  %3 = load ptr, ptr %2, align 8
  %4 = getelementptr inbounds %"struct.nanogui::Array", ptr %3, i32 0, i32 0
  %5 = getelementptr inbounds [2 x i32], ptr %4, i64 0, i64 0
  ret ptr %5
}

; Function Attrs: mustprogress uwtable
define linkonce_odr hidden i64 @_ZN7nanoguimiERKNS_5ArrayIiLm2EEES3_(ptr noundef nonnull align 4 dereferenceable(8) %0, ptr noundef nonnull align 4 dereferenceable(8) %1) #4 comdat {
  %3 = alloca %"struct.nanogui::Array", align 4
  %4 = alloca ptr, align 8
  %5 = alloca ptr, align 8
  %6 = alloca i64, align 8
  store ptr %0, ptr %4, align 8
  store ptr %1, ptr %5, align 8
  call void @_ZN7nanogui5ArrayIiLm2EEC2Ev(ptr noundef nonnull align 4 dereferenceable(8) %3)
  store i64 0, ptr %6, align 8
  br label %7

7:                                                ; preds = %24, %2
  %8 = load i64, ptr %6, align 8
  %9 = icmp ult i64 %8, 2
  br i1 %9, label %10, label %27

10:                                               ; preds = %7
  %11 = load ptr, ptr %4, align 8
  %12 = getelementptr inbounds %"struct.nanogui::Array", ptr %11, i32 0, i32 0
  %13 = load i64, ptr %6, align 8
  %14 = getelementptr inbounds [2 x i32], ptr %12, i64 0, i64 %13
  %15 = load i32, ptr %14, align 4
  %16 = load ptr, ptr %5, align 8
  %17 = getelementptr inbounds %"struct.nanogui::Array", ptr %16, i32 0, i32 0
  %18 = load i64, ptr %6, align 8
  %19 = getelementptr inbounds [2 x i32], ptr %17, i64 0, i64 %18
  %20 = load i32, ptr %19, align 4
  %21 = sub nsw i32 %15, %20
  %22 = load i64, ptr %6, align 8
  %23 = call noundef nonnull align 4 dereferenceable(4) ptr @_ZN7nanogui5ArrayIiLm2EEixEm(ptr noundef nonnull align 4 dereferenceable(8) %3, i64 noundef %22)
  store i32 %21, ptr %23, align 4
  br label %24

24:                                               ; preds = %10
  %25 = load i64, ptr %6, align 8
  %26 = add i64 %25, 1
  store i64 %26, ptr %6, align 8
  br label %7, !llvm.loop !24

27:                                               ; preds = %7
  %28 = getelementptr inbounds %"struct.nanogui::Array", ptr %3, i32 0, i32 0
  %29 = load i64, ptr %28, align 4
  ret i64 %29
}

; Function Attrs: mustprogress nounwind uwtable
define linkonce_odr hidden void @_ZN7nanogui5ArrayIfLm2EEC2ILm2ETnNSt9enable_ifIXeqT_Li2EEiE4typeELi0EEEff(ptr noundef nonnull align 4 dereferenceable(8) %0, float noundef %1, float noundef %2) unnamed_addr #7 comdat align 2 {
  %4 = alloca ptr, align 8
  %5 = alloca float, align 4
  %6 = alloca float, align 4
  store ptr %0, ptr %4, align 8
  store float %1, ptr %5, align 4
  store float %2, ptr %6, align 4
  %7 = load ptr, ptr %4, align 8
  %8 = load float, ptr %5, align 4
  %9 = getelementptr inbounds %"struct.nanogui::Array.25", ptr %7, i32 0, i32 0
  %10 = getelementptr inbounds [2 x float], ptr %9, i64 0, i64 0
  store float %8, ptr %10, align 4
  %11 = load float, ptr %6, align 4
  %12 = getelementptr inbounds %"struct.nanogui::Array.25", ptr %7, i32 0, i32 0
  %13 = getelementptr inbounds [2 x float], ptr %12, i64 0, i64 1
  store float %11, ptr %13, align 4
  ret void
}

; Function Attrs: mustprogress uwtable
define linkonce_odr hidden noundef zeroext i1 @_ZNK7nanogui6Widget8containsERKNS_5ArrayIiLm2EEE(ptr noundef nonnull align 8 dereferenceable(140) %0, ptr noundef nonnull align 4 dereferenceable(8) %1) #4 comdat align 2 {
  %3 = alloca ptr, align 8
  %4 = alloca ptr, align 8
  %5 = alloca %"struct.nanogui::Array", align 4
  store ptr %0, ptr %3, align 8
  store ptr %1, ptr %4, align 8
  %6 = load ptr, ptr %3, align 8
  %7 = load ptr, ptr %4, align 8
  %8 = getelementptr inbounds %"class.nanogui::Widget", ptr %6, i32 0, i32 5
  %9 = call i64 @_ZN7nanoguimiERKNS_5ArrayIiLm2EEES3_(ptr noundef nonnull align 4 dereferenceable(8) %7, ptr noundef nonnull align 4 dereferenceable(8) %8)
  %10 = getelementptr inbounds %"struct.nanogui::Array", ptr %5, i32 0, i32 0
  store i64 %9, ptr %10, align 4
  %11 = call noundef nonnull align 4 dereferenceable(4) ptr @_ZN7nanogui5ArrayIiLm2EE1xILm2ETnNSt9enable_ifIXgeT_Li1EEiE4typeELi0EEERiv(ptr noundef nonnull align 4 dereferenceable(8) %5)
  %12 = load i32, ptr %11, align 4
  %13 = icmp sge i32 %12, 0
  br i1 %13, label %14, label %32

14:                                               ; preds = %2
  %15 = call noundef nonnull align 4 dereferenceable(4) ptr @_ZN7nanogui5ArrayIiLm2EE1yILm2ETnNSt9enable_ifIXgeT_Li2EEiE4typeELi0EEERiv(ptr noundef nonnull align 4 dereferenceable(8) %5)
  %16 = load i32, ptr %15, align 4
  %17 = icmp sge i32 %16, 0
  br i1 %17, label %18, label %32

18:                                               ; preds = %14
  %19 = call noundef nonnull align 4 dereferenceable(4) ptr @_ZN7nanogui5ArrayIiLm2EE1xILm2ETnNSt9enable_ifIXgeT_Li1EEiE4typeELi0EEERiv(ptr noundef nonnull align 4 dereferenceable(8) %5)
  %20 = load i32, ptr %19, align 4
  %21 = getelementptr inbounds %"class.nanogui::Widget", ptr %6, i32 0, i32 6
  %22 = call noundef nonnull align 4 dereferenceable(4) ptr @_ZNK7nanogui5ArrayIiLm2EE1xILm2ETnNSt9enable_ifIXgeT_Li1EEiE4typeELi0EEERKiv(ptr noundef nonnull align 4 dereferenceable(8) %21)
  %23 = load i32, ptr %22, align 4
  %24 = icmp slt i32 %20, %23
  br i1 %24, label %25, label %32

25:                                               ; preds = %18
  %26 = call noundef nonnull align 4 dereferenceable(4) ptr @_ZN7nanogui5ArrayIiLm2EE1yILm2ETnNSt9enable_ifIXgeT_Li2EEiE4typeELi0EEERiv(ptr noundef nonnull align 4 dereferenceable(8) %5)
  %27 = load i32, ptr %26, align 4
  %28 = getelementptr inbounds %"class.nanogui::Widget", ptr %6, i32 0, i32 6
  %29 = call noundef nonnull align 4 dereferenceable(4) ptr @_ZNK7nanogui5ArrayIiLm2EE1yILm2ETnNSt9enable_ifIXgeT_Li2EEiE4typeELi0EEERKiv(ptr noundef nonnull align 4 dereferenceable(8) %28)
  %30 = load i32, ptr %29, align 4
  %31 = icmp slt i32 %27, %30
  br label %32

32:                                               ; preds = %25, %18, %14, %2
  %33 = phi i1 [ false, %18 ], [ false, %14 ], [ false, %2 ], [ %31, %25 ]
  ret i1 %33
}

; Function Attrs: mustprogress nounwind uwtable
define linkonce_odr hidden noundef zeroext i1 @_ZNK7nanogui6Window5modalEv(ptr noundef nonnull align 8 dereferenceable(186) %0) #7 comdat align 2 {
  %2 = alloca ptr, align 8
  store ptr %0, ptr %2, align 8
  %3 = load ptr, ptr %2, align 8
  %4 = getelementptr inbounds %"class.nanogui::Window", ptr %3, i32 0, i32 4
  %5 = load i8, ptr %4, align 8
  %6 = trunc i8 %5 to i1
  ret i1 %6
}

; Function Attrs: mustprogress nounwind uwtable
define linkonce_odr hidden noundef nonnull align 8 dereferenceable(8) ptr @_ZNSt6vectorIPN7nanogui6WidgetESaIS2_EEixEm(ptr noundef nonnull align 8 dereferenceable(24) %0, i64 noundef %1) #7 comdat align 2 {
  %3 = alloca ptr, align 8
  %4 = alloca i64, align 8
  store ptr %0, ptr %3, align 8
  store i64 %1, ptr %4, align 8
  %5 = load ptr, ptr %3, align 8
  %6 = getelementptr inbounds %"struct.std::_Vector_base", ptr %5, i32 0, i32 0
  %7 = getelementptr inbounds %"struct.std::_Vector_base<nanogui::Widget *, std::allocator<nanogui::Widget *>>::_Vector_impl_data", ptr %6, i32 0, i32 0
  %8 = load ptr, ptr %7, align 8
  %9 = load i64, ptr %4, align 8
  %10 = getelementptr inbounds ptr, ptr %8, i64 %9
  ret ptr %10
}

; Function Attrs: mustprogress nounwind uwtable
define linkonce_odr hidden noundef i64 @_ZNKSt6vectorIPN7nanogui6WidgetESaIS2_EE4sizeEv(ptr noundef nonnull align 8 dereferenceable(24) %0) #7 comdat align 2 {
  %2 = alloca ptr, align 8
  store ptr %0, ptr %2, align 8
  %3 = load ptr, ptr %2, align 8
  %4 = getelementptr inbounds %"struct.std::_Vector_base", ptr %3, i32 0, i32 0
  %5 = getelementptr inbounds %"struct.std::_Vector_base<nanogui::Widget *, std::allocator<nanogui::Widget *>>::_Vector_impl_data", ptr %4, i32 0, i32 1
  %6 = load ptr, ptr %5, align 8
  %7 = getelementptr inbounds %"struct.std::_Vector_base", ptr %3, i32 0, i32 0
  %8 = getelementptr inbounds %"struct.std::_Vector_base<nanogui::Widget *, std::allocator<nanogui::Widget *>>::_Vector_impl_data", ptr %7, i32 0, i32 0
  %9 = load ptr, ptr %8, align 8
  %10 = ptrtoint ptr %6 to i64
  %11 = ptrtoint ptr %9 to i64
  %12 = sub i64 %10, %11
  %13 = sdiv exact i64 %12, 8
  ret i64 %13
}

; Function Attrs: mustprogress uwtable
define hidden void @_ZN7nanogui6Screen21scroll_callback_eventEdd(ptr noundef nonnull align 8 dereferenceable(384) %0, double noundef %1, double noundef %2) #4 align 2 personality ptr @__gxx_personality_v0 {
  %4 = alloca ptr, align 8
  %5 = alloca double, align 8
  %6 = alloca double, align 8
  %7 = alloca ptr, align 8
  %8 = alloca ptr, align 8
  %9 = alloca i32, align 4
  %10 = alloca %"struct.nanogui::Array.25", align 4
  %11 = alloca ptr, align 8
  store ptr %0, ptr %4, align 8
  store double %1, ptr %5, align 8
  store double %2, ptr %6, align 8
  %12 = load ptr, ptr %4, align 8
  %13 = call double @glfwGetTime()
  %14 = getelementptr inbounds %"class.nanogui::Screen", ptr %12, i32 0, i32 13
  store double %13, ptr %14, align 8
  %15 = getelementptr inbounds %"class.nanogui::Screen", ptr %12, i32 0, i32 5
  %16 = call noundef i64 @_ZNKSt6vectorIPN7nanogui6WidgetESaIS2_EE4sizeEv(ptr noundef nonnull align 8 dereferenceable(24) %15) #3
  %17 = icmp ugt i64 %16, 1
  br i1 %17, label %18, label %68

18:                                               ; preds = %3
  %19 = getelementptr inbounds %"class.nanogui::Screen", ptr %12, i32 0, i32 5
  %20 = getelementptr inbounds %"class.nanogui::Screen", ptr %12, i32 0, i32 5
  %21 = call noundef i64 @_ZNKSt6vectorIPN7nanogui6WidgetESaIS2_EE4sizeEv(ptr noundef nonnull align 8 dereferenceable(24) %20) #3
  %22 = sub i64 %21, 2
  %23 = call noundef nonnull align 8 dereferenceable(8) ptr @_ZNSt6vectorIPN7nanogui6WidgetESaIS2_EEixEm(ptr noundef nonnull align 8 dereferenceable(24) %19, i64 noundef %22) #3
  %24 = load ptr, ptr %23, align 8
  %25 = icmp eq ptr %24, null
  br i1 %25, label %28, label %26

26:                                               ; preds = %18
  %27 = call ptr @__dynamic_cast(ptr %24, ptr @_ZTIN7nanogui6WidgetE, ptr @_ZTIN7nanogui6WindowE, i64 0) #3
  br label %29

28:                                               ; preds = %18
  br label %29

29:                                               ; preds = %28, %26
  %30 = phi ptr [ %27, %26 ], [ null, %28 ]
  store ptr %30, ptr %7, align 8
  %31 = load ptr, ptr %7, align 8
  %32 = icmp ne ptr %31, null
  br i1 %32, label %33, label %67

33:                                               ; preds = %29
  %34 = load ptr, ptr %7, align 8
  %35 = invoke noundef zeroext i1 @_ZNK7nanogui6Window5modalEv(ptr noundef nonnull align 8 dereferenceable(186) %34)
          to label %36 unwind label %43

36:                                               ; preds = %33
  br i1 %35, label %37, label %67

37:                                               ; preds = %36
  %38 = load ptr, ptr %7, align 8
  %39 = getelementptr inbounds %"class.nanogui::Screen", ptr %12, i32 0, i32 10
  %40 = invoke noundef zeroext i1 @_ZNK7nanogui6Widget8containsERKNS_5ArrayIiLm2EEE(ptr noundef nonnull align 8 dereferenceable(140) %38, ptr noundef nonnull align 4 dereferenceable(8) %39)
          to label %41 unwind label %43

41:                                               ; preds = %37
  br i1 %40, label %66, label %42

42:                                               ; preds = %41
  br label %65

43:                                               ; preds = %74, %68, %37, %33
  %44 = landingpad { ptr, i32 }
          catch ptr @_ZTISt9exception
  %45 = extractvalue { ptr, i32 } %44, 0
  store ptr %45, ptr %8, align 8
  %46 = extractvalue { ptr, i32 } %44, 1
  store i32 %46, ptr %9, align 4
  br label %47

47:                                               ; preds = %43
  %48 = load i32, ptr %9, align 4
  %49 = call i32 @llvm.eh.typeid.for(ptr @_ZTISt9exception) #3
  %50 = icmp eq i32 %48, %49
  br i1 %50, label %51, label %93

51:                                               ; preds = %47
  %52 = load ptr, ptr %8, align 8
  %53 = call ptr @__cxa_begin_catch(ptr %52) #3
  store ptr %53, ptr %11, align 8
  %54 = invoke noundef nonnull align 8 dereferenceable(8) ptr @_ZStlsISt11char_traitsIcEERSt13basic_ostreamIcT_ES5_PKc(ptr noundef nonnull align 8 dereferenceable(8) @_ZSt4cerr, ptr noundef @.str.9)
          to label %55 unwind label %88

55:                                               ; preds = %51
  %56 = load ptr, ptr %11, align 8
  %57 = load ptr, ptr %56, align 8
  %58 = getelementptr inbounds ptr, ptr %57, i64 2
  %59 = load ptr, ptr %58, align 8
  %60 = call noundef ptr %59(ptr noundef nonnull align 8 dereferenceable(8) %56) #3
  %61 = invoke noundef nonnull align 8 dereferenceable(8) ptr @_ZStlsISt11char_traitsIcEERSt13basic_ostreamIcT_ES5_PKc(ptr noundef nonnull align 8 dereferenceable(8) %54, ptr noundef %60)
          to label %62 unwind label %88

62:                                               ; preds = %55
  %63 = invoke noundef nonnull align 8 dereferenceable(8) ptr @_ZNSolsEPFRSoS_E(ptr noundef nonnull align 8 dereferenceable(8) %61, ptr noundef @_ZSt4endlIcSt11char_traitsIcEERSt13basic_ostreamIT_T0_ES6_)
          to label %64 unwind label %88

64:                                               ; preds = %62
  call void @__cxa_end_catch()
  br label %65

65:                                               ; preds = %79, %64, %42
  ret void

66:                                               ; preds = %41
  br label %67

67:                                               ; preds = %66, %36, %29
  br label %68

68:                                               ; preds = %67, %3
  %69 = getelementptr inbounds %"class.nanogui::Screen", ptr %12, i32 0, i32 10
  %70 = load double, ptr %5, align 8
  %71 = fptrunc double %70 to float
  %72 = load double, ptr %6, align 8
  %73 = fptrunc double %72 to float
  invoke void @_ZN7nanogui5ArrayIfLm2EEC2ILm2ETnNSt9enable_ifIXeqT_Li2EEiE4typeELi0EEEff(ptr noundef nonnull align 4 dereferenceable(8) %10, float noundef %71, float noundef %73)
          to label %74 unwind label %43

74:                                               ; preds = %68
  %75 = load ptr, ptr %12, align 8
  %76 = getelementptr inbounds ptr, ptr %75, i64 8
  %77 = load ptr, ptr %76, align 8
  %78 = invoke noundef zeroext i1 %77(ptr noundef nonnull align 8 dereferenceable(140) %12, ptr noundef nonnull align 4 dereferenceable(8) %69, ptr noundef nonnull align 4 dereferenceable(8) %10)
          to label %79 unwind label %43

79:                                               ; preds = %74
  %80 = zext i1 %78 to i32
  %81 = getelementptr inbounds %"class.nanogui::Screen", ptr %12, i32 0, i32 22
  %82 = load i8, ptr %81, align 1
  %83 = trunc i8 %82 to i1
  %84 = zext i1 %83 to i32
  %85 = or i32 %84, %80
  %86 = icmp ne i32 %85, 0
  %87 = zext i1 %86 to i8
  store i8 %87, ptr %81, align 1
  br label %65

88:                                               ; preds = %62, %55, %51
  %89 = landingpad { ptr, i32 }
          cleanup
  %90 = extractvalue { ptr, i32 } %89, 0
  store ptr %90, ptr %8, align 8
  %91 = extractvalue { ptr, i32 } %89, 1
  store i32 %91, ptr %9, align 4
  invoke void @__cxa_end_catch()
          to label %92 unwind label %98

92:                                               ; preds = %88
  br label %93

93:                                               ; preds = %92, %47
  %94 = load ptr, ptr %8, align 8
  %95 = load i32, ptr %9, align 4
  %96 = insertvalue { ptr, i32 } poison, ptr %94, 0
  %97 = insertvalue { ptr, i32 } %96, i32 %95, 1
  resume { ptr, i32 } %97

98:                                               ; preds = %88
  %99 = landingpad { ptr, i32 }
          catch ptr null
  %100 = extractvalue { ptr, i32 } %99, 0
  call void @__clang_call_terminate(ptr %100) #23
  unreachable
}