; Function Attrs: mustprogress uwtable
define hidden void @_ZN7nanogui6Screen21scroll_callback_eventEdd(ptr noundef nonnull align 8 dereferenceable(384) %0, double noundef %1, double noundef %2) local_unnamed_addr #3 align 2 personality ptr @__gxx_personality_v0 {
  %4 = alloca %"struct.nanogui::Array.25", align 8
  %5 = tail call double @glfwGetTime()
  %6 = getelementptr inbounds i8, ptr %0, i64 280
  store double %5, ptr %6, align 8
  %7 = getelementptr inbounds i8, ptr %0, i64 216
  %8 = getelementptr inbounds i8, ptr %0, i64 224
  %9 = load ptr, ptr %8, align 8
  %10 = load ptr, ptr %7, align 8
  %11 = ptrtoint ptr %9 to i64
  %12 = ptrtoint ptr %10 to i64
  %13 = sub i64 %11, %12
  %14 = icmp ugt i64 %13, 8
  br i1 %14, label %15, label %.thread

15:                                               ; preds = %3
  %16 = getelementptr i8, ptr %10, i64 %13
  %17 = getelementptr i8, ptr %16, i64 -16
  %18 = load ptr, ptr %17, align 8
  %19 = icmp eq ptr %18, null
  br i1 %19, label %.thread, label %20

20:                                               ; preds = %15
  %21 = tail call ptr @__dynamic_cast(ptr nonnull %18, ptr nonnull @_ZTIN7nanogui6WidgetE, ptr nonnull @_ZTIN7nanogui6WindowE, i64 0) #30
  %.not = icmp eq ptr %21, null
  br i1 %.not, label %.thread, label %22

22:                                               ; preds = %20
  %23 = getelementptr inbounds i8, ptr %21, i64 184
  %24 = load i8, ptr %23, align 8
  %25 = and i8 %24, 1
  %.not15 = icmp eq i8 %25, 0
  br i1 %.not15, label %.thread, label %26

26:                                               ; preds = %22
  %27 = getelementptr inbounds i8, ptr %0, i64 260
  %28 = getelementptr inbounds i8, ptr %21, i64 40
  %29 = load <2 x i32>, ptr %27, align 4
  %30 = load <2 x i32>, ptr %28, align 4
  %31 = sub nsw <2 x i32> %29, %30
  %32 = extractelement <2 x i32> %31, i64 0
  %33 = extractelement <2 x i32> %31, i64 1
  %34 = or i32 %33, %32
  %or.cond.i = icmp sgt i32 %34, -1
  %35 = getelementptr inbounds i8, ptr %21, i64 48
  %36 = load i32, ptr %35, align 4
  %37 = icmp slt i32 %32, %36
  %or.cond8.i = select i1 %or.cond.i, i1 %37, i1 false
  br i1 %or.cond8.i, label %_ZNK7nanogui6Widget8containsERKNS_5ArrayIiLm2EEE.exit, label %_ZNK7nanogui6Widget8containsERKNS_5ArrayIiLm2EEE.exit.thread

_ZNK7nanogui6Widget8containsERKNS_5ArrayIiLm2EEE.exit: ; preds = %26
  %38 = getelementptr inbounds i8, ptr %21, i64 52
  %39 = load i32, ptr %38, align 4
  %40 = icmp slt i32 %33, %39
  br i1 %40, label %.thread, label %_ZNK7nanogui6Widget8containsERKNS_5ArrayIiLm2EEE.exit.thread

41:                                               ; preds = %.thread
  %42 = landingpad { ptr, i32 }
          catch ptr @_ZTISt9exception
  %43 = extractvalue { ptr, i32 } %42, 1
  %44 = call i32 @llvm.eh.typeid.for(ptr nonnull @_ZTISt9exception) #30
  %45 = icmp eq i32 %43, %44
  br i1 %45, label %46, label %75

46:                                               ; preds = %41
  %47 = extractvalue { ptr, i32 } %42, 0
  %48 = call ptr @__cxa_begin_catch(ptr %47) #30
  %49 = invoke noundef nonnull align 8 dereferenceable(8) ptr @_ZStlsISt11char_traitsIcEERSt13basic_ostreamIcT_ES5_PKc(ptr noundef nonnull align 8 dereferenceable(8) @_ZSt4cerr, ptr noundef nonnull @.str.9)
          to label %50 unwind label %73

50:                                               ; preds = %46
  %51 = load ptr, ptr %48, align 8
  %52 = getelementptr inbounds i8, ptr %51, i64 16
  %53 = load ptr, ptr %52, align 8
  %54 = call noundef ptr %53(ptr noundef nonnull align 8 dereferenceable(8) %48) #30
  %55 = invoke noundef nonnull align 8 dereferenceable(8) ptr @_ZStlsISt11char_traitsIcEERSt13basic_ostreamIcT_ES5_PKc(ptr noundef nonnull align 8 dereferenceable(8) %49, ptr noundef %54)
          to label %56 unwind label %73

56:                                               ; preds = %50
  %57 = invoke noundef nonnull align 8 dereferenceable(8) ptr @_ZNSolsEPFRSoS_E(ptr noundef nonnull align 8 dereferenceable(8) %55, ptr noundef nonnull @_ZSt4endlIcSt11char_traitsIcEERSt13basic_ostreamIT_T0_ES6_)
          to label %58 unwind label %73

58:                                               ; preds = %56
  call void @__cxa_end_catch()
  br label %_ZNK7nanogui6Widget8containsERKNS_5ArrayIiLm2EEE.exit.thread

_ZNK7nanogui6Widget8containsERKNS_5ArrayIiLm2EEE.exit.thread: ; preds = %26, %_ZNK7nanogui6Widget8containsERKNS_5ArrayIiLm2EEE.exit, %67, %58
  ret void

.thread:                                          ; preds = %15, %20, %22, %_ZNK7nanogui6Widget8containsERKNS_5ArrayIiLm2EEE.exit, %3
  %59 = getelementptr inbounds i8, ptr %0, i64 260
  %60 = insertelement <2 x double> poison, double %1, i64 0
  %61 = insertelement <2 x double> %60, double %2, i64 1
  %62 = fptrunc <2 x double> %61 to <2 x float>
  store <2 x float> %62, ptr %4, align 8
  %63 = load ptr, ptr %0, align 8
  %64 = getelementptr inbounds i8, ptr %63, i64 64
  %65 = load ptr, ptr %64, align 8
  %66 = invoke noundef zeroext i1 %65(ptr noundef nonnull align 8 dereferenceable(140) %0, ptr noundef nonnull align 4 dereferenceable(8) %59, ptr noundef nonnull align 4 dereferenceable(8) %4)
          to label %67 unwind label %41

67:                                               ; preds = %.thread
  %68 = getelementptr inbounds i8, ptr %0, i64 349
  %69 = load i8, ptr %68, align 1
  %70 = and i8 %69, 1
  %71 = zext i1 %66 to i8
  %72 = or i8 %70, %71
  store i8 %72, ptr %68, align 1
  br label %_ZNK7nanogui6Widget8containsERKNS_5ArrayIiLm2EEE.exit.thread

73:                                               ; preds = %56, %50, %46
  %74 = landingpad { ptr, i32 }
          cleanup
  invoke void @__cxa_end_catch()
          to label %75 unwind label %76

75:                                               ; preds = %73, %41
  %.merged = phi { ptr, i32 } [ %74, %73 ], [ %42, %41 ]
  resume { ptr, i32 } %.merged

76:                                               ; preds = %73
  %77 = landingpad { ptr, i32 }
          catch ptr null
  %78 = extractvalue { ptr, i32 } %77, 0
  call void @__clang_call_terminate(ptr %78) #31
  unreachable
}